target datalayout = "e-m:e-p270:32:32-p271:32:32-p272:64:64-i64:64-i128:128-f80:128-n8:16:32:64-S128"
target triple = "x86_64-pc-linux-gnu"

%struct.SlruCtlData = type { ptr, i16, i8, i32, ptr, [64 x i8] }
%struct.dirent = type { i64, i64, i16, i8, [256 x i8] }

@.str.2 = private unnamed_addr constant [7 x i8] c"slru.c\00", align 1
@.str.3 = private unnamed_addr constant [17 x i8] c"0123456789ABCDEF\00", align 1
@.str.4 = private unnamed_addr constant [45 x i8] c"SlruScanDirectory invoking callback on %s/%s\00", align 1
@__func__.SlruScanDirectory = private unnamed_addr constant [18 x i8] c"SlruScanDirectory\00", align 1

; Function Attrs: inlinehint nounwind uwtable
define internal zeroext i1 @SlruCorrectSegmentFilenameLength(ptr noundef %0, i64 noundef %1) #4 {
  %3 = alloca i1, align 1
  %4 = alloca ptr, align 8
  %5 = alloca i64, align 8
  store ptr %0, ptr %4, align 8
  store i64 %1, ptr %5, align 8
  %6 = load ptr, ptr %4, align 8
  %7 = getelementptr inbounds nuw %struct.SlruCtlData, ptr %6, i32 0, i32 2
  %8 = load i8, ptr %7, align 2, !range !4, !noundef !5
  %9 = trunc i8 %8 to i1
  br i1 %9, label %10, label %13

10:                                               ; preds = %2
  %11 = load i64, ptr %5, align 8
  %12 = icmp eq i64 %11, 15
  store i1 %12, ptr %3, align 1
  br label %24

13:                                               ; preds = %2
  %14 = load i64, ptr %5, align 8
  %15 = icmp eq i64 %14, 4
  br i1 %15, label %22, label %16

16:                                               ; preds = %13
  %17 = load i64, ptr %5, align 8
  %18 = icmp eq i64 %17, 5
  br i1 %18, label %22, label %19

19:                                               ; preds = %16
  %20 = load i64, ptr %5, align 8
  %21 = icmp eq i64 %20, 6
  br label %22

22:                                               ; preds = %19, %16, %13
  %23 = phi i1 [ true, %16 ], [ true, %13 ], [ %21, %19 ]
  store i1 %23, ptr %3, align 1
  br label %24

24:                                               ; preds = %22, %10
  %25 = load i1, ptr %3, align 1
  ret i1 %25
}

; Function Attrs: nounwind uwtable
define dso_local zeroext i1 @SlruScanDirectory(ptr noundef %0, ptr noundef %1, ptr noundef %2) #0 {
  %4 = alloca ptr, align 8
  %5 = alloca ptr, align 8
  %6 = alloca ptr, align 8
  %7 = alloca i8, align 1
  %8 = alloca ptr, align 8
  %9 = alloca ptr, align 8
  %10 = alloca i64, align 8
  %11 = alloca i64, align 8
  %12 = alloca i64, align 8
  %13 = alloca i32, align 4
  store ptr %0, ptr %4, align 8
  store ptr %1, ptr %5, align 8
  store ptr %2, ptr %6, align 8
  call void @llvm.lifetime.start.p0(i64 1, ptr %7) #9
  store i8 0, ptr %7, align 1
  call void @llvm.lifetime.start.p0(i64 8, ptr %8) #9
  call void @llvm.lifetime.start.p0(i64 8, ptr %9) #9
  call void @llvm.lifetime.start.p0(i64 8, ptr %10) #9
  call void @llvm.lifetime.start.p0(i64 8, ptr %11) #9
  %14 = load ptr, ptr %4, align 8
  %15 = getelementptr inbounds nuw %struct.SlruCtlData, ptr %14, i32 0, i32 5
  %16 = getelementptr inbounds [64 x i8], ptr %15, i64 0, i64 0
  %17 = call ptr @AllocateDir(ptr noundef %16)
  store ptr %17, ptr %8, align 8
  br label %18

18:                                               ; preds = %79, %3
  %19 = load ptr, ptr %8, align 8
  %20 = load ptr, ptr %4, align 8
  %21 = getelementptr inbounds nuw %struct.SlruCtlData, ptr %20, i32 0, i32 5
  %22 = getelementptr inbounds [64 x i8], ptr %21, i64 0, i64 0
  %23 = call ptr @ReadDir(ptr noundef %19, ptr noundef %22)
  store ptr %23, ptr %9, align 8
  %24 = icmp ne ptr %23, null
  br i1 %24, label %25, label %80

25:                                               ; preds = %18
  call void @llvm.lifetime.start.p0(i64 8, ptr %12) #9
  %26 = load ptr, ptr %9, align 8
  %27 = getelementptr inbounds nuw %struct.dirent, ptr %26, i32 0, i32 4
  %28 = getelementptr inbounds [256 x i8], ptr %27, i64 0, i64 0
  %29 = call i64 @strlen(ptr noundef %28) #12
  store i64 %29, ptr %12, align 8
  %30 = load ptr, ptr %4, align 8
  %31 = load i64, ptr %12, align 8
  %32 = call zeroext i1 @SlruCorrectSegmentFilenameLength(ptr noundef %30, i64 noundef %31)
  br i1 %32, label %33, label %76

33:                                               ; preds = %25
  %34 = load ptr, ptr %9, align 8
  %35 = getelementptr inbounds nuw %struct.dirent, ptr %34, i32 0, i32 4
  %36 = getelementptr inbounds [256 x i8], ptr %35, i64 0, i64 0
  %37 = call i64 @strspn(ptr noundef %36, ptr noundef @.str.3) #12
  %38 = load i64, ptr %12, align 8
  %39 = icmp eq i64 %37, %38
  br i1 %39, label %40, label %76

40:                                               ; preds = %33
  %41 = load ptr, ptr %9, align 8
  %42 = getelementptr inbounds nuw %struct.dirent, ptr %41, i32 0, i32 4
  %43 = getelementptr inbounds [256 x i8], ptr %42, i64 0, i64 0
  %44 = call i64 @strtol(ptr noundef %43, ptr noundef null, i32 noundef 16) #9
  store i64 %44, ptr %10, align 8
  %45 = load i64, ptr %10, align 8
  %46 = mul i64 %45, 32
  store i64 %46, ptr %11, align 8
  br label %47

47:                                               ; preds = %40
  br i1 false, label %48, label %50

48:                                               ; preds = %47
  %49 = call zeroext i1 @errstart_cold(i32 noundef 13, ptr noundef null) #11
  br i1 %49, label %52, label %60

50:                                               ; preds = %47
  %51 = call zeroext i1 @errstart(i32 noundef 13, ptr noundef null)
  br i1 %51, label %52, label %60

52:                                               ; preds = %50, %48
  %53 = load ptr, ptr %4, align 8
  %54 = getelementptr inbounds nuw %struct.SlruCtlData, ptr %53, i32 0, i32 5
  %55 = getelementptr inbounds [64 x i8], ptr %54, i64 0, i64 0
  %56 = load ptr, ptr %9, align 8
  %57 = getelementptr inbounds nuw %struct.dirent, ptr %56, i32 0, i32 4
  %58 = getelementptr inbounds [256 x i8], ptr %57, i64 0, i64 0
  %59 = call i32 (ptr, ...) @errmsg_internal(ptr noundef @.str.4, ptr noundef %55, ptr noundef %58)
  call void @errfinish(ptr noundef @.str.2, i32 noundef 1813, ptr noundef @__func__.SlruScanDirectory)
  br label %60

60:                                               ; preds = %52, %50, %48
  br label %61

61:                                               ; preds = %60
  br label %62

62:                                               ; preds = %61
  %63 = load ptr, ptr %5, align 8
  %64 = load ptr, ptr %4, align 8
  %65 = load ptr, ptr %9, align 8
  %66 = getelementptr inbounds nuw %struct.dirent, ptr %65, i32 0, i32 4
  %67 = getelementptr inbounds [256 x i8], ptr %66, i64 0, i64 0
  %68 = load i64, ptr %11, align 8
  %69 = load ptr, ptr %6, align 8
  %70 = call zeroext i1 %63(ptr noundef %64, ptr noundef %67, i64 noundef %68, ptr noundef %69)
  %71 = zext i1 %70 to i8
  store i8 %71, ptr %7, align 1
  %72 = load i8, ptr %7, align 1, !range !4, !noundef !5
  %73 = trunc i8 %72 to i1
  br i1 %73, label %74, label %75

74:                                               ; preds = %62
  store i32 3, ptr %13, align 4
  br label %77

75:                                               ; preds = %62
  br label %76

76:                                               ; preds = %75, %33, %25
  store i32 0, ptr %13, align 4
  br label %77

77:                                               ; preds = %76, %74
  call void @llvm.lifetime.end.p0(i64 8, ptr %12) #9
  %78 = load i32, ptr %13, align 4
  switch i32 %78, label %85 [
    i32 0, label %79
    i32 3, label %80
  ]

79:                                               ; preds = %77
  br label %18, !llvm.loop !20

80:                                               ; preds = %77, %18
  %81 = load ptr, ptr %8, align 8
  %82 = call i32 @FreeDir(ptr noundef %81)
  %83 = load i8, ptr %7, align 1, !range !4, !noundef !5
  %84 = trunc i8 %83 to i1
  store i32 1, ptr %13, align 4
  call void @llvm.lifetime.end.p0(i64 8, ptr %11) #9
  call void @llvm.lifetime.end.p0(i64 8, ptr %10) #9
  call void @llvm.lifetime.end.p0(i64 8, ptr %9) #9
  call void @llvm.lifetime.end.p0(i64 8, ptr %8) #9
  call void @llvm.lifetime.end.p0(i64 1, ptr %7) #9
  ret i1 %84

85:                                               ; preds = %77
  unreachable
}