; Function Attrs: nounwind uwtable
define dso_local noundef zeroext i1 @SlruScanDirectory(ptr noundef %0, ptr noundef readonly captures(none) %1, ptr noundef %2) local_unnamed_addr #3 {
  %4 = getelementptr inbounds nuw i8, ptr %0, i64 24
  %5 = tail call ptr @AllocateDir(ptr noundef nonnull %4) #15
  %6 = tail call ptr @ReadDir(ptr noundef %5, ptr noundef nonnull %4) #15
  %.not25.not = icmp eq ptr %6, null
  br i1 %.not25.not, label %.thread, label %.lr.ph

.lr.ph:                                           ; preds = %3
  %7 = getelementptr i8, ptr %0, i64 10
  br label %8

8:                                                ; preds = %.lr.ph, %26
  %9 = phi ptr [ %6, %.lr.ph ], [ %27, %26 ]
  %10 = getelementptr inbounds nuw i8, ptr %9, i64 19
  %11 = tail call i64 @strlen(ptr noundef nonnull dereferenceable(1) %10) #18
  %.val = load i8, ptr %7, align 2, !range !4, !noundef !5
  %12 = trunc nuw i8 %.val to i1
  br i1 %12, label %13, label %SlruCorrectSegmentFilenameLength.exit

13:                                               ; preds = %8
  %14 = icmp eq i64 %11, 15
  br i1 %14, label %15, label %26

SlruCorrectSegmentFilenameLength.exit:            ; preds = %8
  %.off = add i64 %11, -4
  %switch = icmp ult i64 %.off, 3
  br i1 %switch, label %15, label %26

15:                                               ; preds = %SlruCorrectSegmentFilenameLength.exit, %13
  %16 = tail call i64 @strspn(ptr noundef nonnull %10, ptr noundef nonnull @.str.3) #18
  %17 = icmp eq i64 %16, %11
  br i1 %17, label %18, label %26

18:                                               ; preds = %15
  %19 = tail call i64 @strtol(ptr noundef nonnull captures(none) %10, ptr noundef null, i32 noundef 16) #15
  %20 = shl i64 %19, 5
  %21 = tail call zeroext i1 @errstart(i32 noundef 13, ptr noundef null) #15
  br i1 %21, label %22, label %24

22:                                               ; preds = %18
  %23 = tail call i32 (ptr, ...) @errmsg_internal(ptr noundef nonnull @.str.4, ptr noundef nonnull %4, ptr noundef nonnull %10) #15
  tail call void @errfinish(ptr noundef nonnull @.str.2, i32 noundef 1813, ptr noundef nonnull @__func__.SlruScanDirectory) #15
  br label %24

24:                                               ; preds = %22, %18
  %25 = tail call zeroext i1 %1(ptr noundef nonnull %0, ptr noundef nonnull %10, i64 noundef %20, ptr noundef %2) #15
  br i1 %25, label %.thread, label %26

26:                                               ; preds = %SlruCorrectSegmentFilenameLength.exit, %24, %13, %15
  %27 = tail call ptr @ReadDir(ptr noundef %5, ptr noundef nonnull %4) #15
  %.not.not = icmp eq ptr %27, null
  br i1 %.not.not, label %.thread, label %8

.thread:                                          ; preds = %26, %24, %3
  %.not.lcssa = phi i1 [ false, %3 ], [ true, %24 ], [ false, %26 ]
  %28 = tail call i32 @FreeDir(ptr noundef %5) #15
  ret i1 %.not.lcssa
}